; Function Attrs: nounwind uwtable
define dso_local void @Py_SetProgramName(ptr noundef %0) local_unnamed_addr #1 {
  %2 = alloca %struct.PyMemAllocatorEx, align 8
  %.not = icmp eq ptr %0, null
  br i1 %.not, label %6, label %3

3:                                                ; preds = %1
  %4 = load i32, ptr %0, align 4, !tbaa !29
  %5 = icmp ne i32 %4, 0
  br label %6

6:                                                ; preds = %3, %1
  %7 = phi i1 [ false, %1 ], [ %5, %3 ]
  call void @llvm.lifetime.start.p0(i64 40, ptr nonnull %2) #12
  %8 = call i32 @_PyMem_SetDefaultAllocator(i32 noundef 0, ptr noundef nonnull %2) #12
  %9 = load ptr, ptr getelementptr inbounds nuw (i8, ptr @_Py_path_config, i64 48), align 8, !tbaa !16
  call void @PyMem_RawFree(ptr noundef %9) #12
  store ptr null, ptr getelementptr inbounds nuw (i8, ptr @_Py_path_config, i64 48), align 8, !tbaa !16
  br i1 %7, label %10, label %12

10:                                               ; preds = %6
  %11 = call ptr @_PyMem_RawWcsdup(ptr noundef %0) #12
  store ptr %11, ptr getelementptr inbounds nuw (i8, ptr @_Py_path_config, i64 48), align 8, !tbaa !16
  br label %12

12:                                               ; preds = %10, %6
  call void @PyMem_SetAllocator(i32 noundef 0, ptr noundef nonnull %2) #12
  %13 = load ptr, ptr getelementptr inbounds nuw (i8, ptr @_Py_path_config, i64 48), align 8
  %14 = icmp eq ptr %13, null
  %or.cond = select i1 %7, i1 %14, i1 false
  br i1 %or.cond, label %15, label %16

15:                                               ; preds = %12
  call fastcc void @path_out_of_memory(ptr noundef nonnull @__func__.Py_SetProgramName) #14
  unreachable

16:                                               ; preds = %12
  call void @llvm.lifetime.end.p0(i64 40, ptr nonnull %2) #12
  ret void
}